target datalayout = "e-m:e-p270:32:32-p271:32:32-p272:64:64-i64:64-i128:128-f80:128-n8:16:32:64-S128"
target triple = "x86_64-pc-linux-gnu"

%"class.pxrInternal_v0_24__pxrReserved__::GfMatrix4f" = type { %"class.pxrInternal_v0_24__pxrReserved__::GfMatrixData" }
%"class.pxrInternal_v0_24__pxrReserved__::GfMatrixData" = type { [16 x float] }
%"class.pxrInternal_v0_24__pxrReserved__::GfVec3f" = type { [3 x float] }
%"class.pxrInternal_v0_24__pxrReserved__::GfMatrix3f" = type { %"class.pxrInternal_v0_24__pxrReserved__::GfMatrixData.16" }
%"class.pxrInternal_v0_24__pxrReserved__::GfMatrixData.16" = type { [9 x float] }

; Function Attrs: mustprogress nounwind uwtable
define linkonce_odr noundef ptr @_ZNK32pxrInternal_v0_24__pxrReserved__12GfMatrixDataIfLi3ELi3EEixEi(ptr noundef nonnull align 4 dereferenceable(36) %0, i32 noundef %1) #2 comdat align 2 {
  %3 = alloca ptr, align 8
  %4 = alloca i32, align 4
  store ptr %0, ptr %3, align 8
  store i32 %1, ptr %4, align 4
  %5 = load ptr, ptr %3, align 8
  %6 = getelementptr inbounds nuw %"class.pxrInternal_v0_24__pxrReserved__::GfMatrixData.16", ptr %5, i32 0, i32 0
  %7 = getelementptr inbounds [9 x float], ptr %6, i64 0, i64 0
  %8 = load i32, ptr %4, align 4
  %9 = mul nsw i32 %8, 3
  %10 = sext i32 %9 to i64
  %11 = getelementptr inbounds float, ptr %7, i64 %10
  ret ptr %11
}

; Function Attrs: mustprogress nounwind uwtable
define linkonce_odr noundef nonnull align 4 dereferenceable(4) ptr @_ZNK32pxrInternal_v0_24__pxrReserved__7GfVec3fixEm(ptr noundef nonnull align 4 dereferenceable(12) %0, i64 noundef %1) #2 comdat align 2 {
  %3 = alloca ptr, align 8
  %4 = alloca i64, align 8
  store ptr %0, ptr %3, align 8
  store i64 %1, ptr %4, align 8
  %5 = load ptr, ptr %3, align 8
  %6 = getelementptr inbounds nuw %"class.pxrInternal_v0_24__pxrReserved__::GfVec3f", ptr %5, i32 0, i32 0
  %7 = load i64, ptr %4, align 8
  %8 = getelementptr inbounds [3 x float], ptr %6, i64 0, i64 %7
  ret ptr %8
}

; Function Attrs: mustprogress nounwind uwtable
define linkonce_odr noundef ptr @_ZN32pxrInternal_v0_24__pxrReserved__12GfMatrixDataIfLi4ELi4EEixEi(ptr noundef nonnull align 4 dereferenceable(64) %0, i32 noundef %1) #2 comdat align 2 {
  %3 = alloca ptr, align 8
  %4 = alloca i32, align 4
  store ptr %0, ptr %3, align 8
  store i32 %1, ptr %4, align 4
  %5 = load ptr, ptr %3, align 8
  %6 = getelementptr inbounds nuw %"class.pxrInternal_v0_24__pxrReserved__::GfMatrixData", ptr %5, i32 0, i32 0
  %7 = getelementptr inbounds [16 x float], ptr %6, i64 0, i64 0
  %8 = load i32, ptr %4, align 4
  %9 = mul nsw i32 %8, 4
  %10 = sext i32 %9 to i64
  %11 = getelementptr inbounds float, ptr %7, i64 %10
  ret ptr %11
}

; Function Attrs: mustprogress uwtable
define linkonce_odr noundef ptr @_ZNK32pxrInternal_v0_24__pxrReserved__10GfMatrix3fixEi(ptr noundef nonnull align 4 dereferenceable(36) %0, i32 noundef %1) #0 comdat align 2 {
  %3 = alloca ptr, align 8
  %4 = alloca i32, align 4
  store ptr %0, ptr %3, align 8
  store i32 %1, ptr %4, align 4
  %5 = load ptr, ptr %3, align 8
  %6 = getelementptr inbounds nuw %"class.pxrInternal_v0_24__pxrReserved__::GfMatrix3f", ptr %5, i32 0, i32 0
  %7 = load i32, ptr %4, align 4
  %8 = call noundef ptr @_ZNK32pxrInternal_v0_24__pxrReserved__12GfMatrixDataIfLi3ELi3EEixEi(ptr noundef nonnull align 4 dereferenceable(36) %6, i32 noundef %7)
  ret ptr %8
}

; Function Attrs: mustprogress uwtable
define noundef nonnull align 4 dereferenceable(64) ptr @_ZN32pxrInternal_v0_24__pxrReserved__10GfMatrix4f16SetTranslateOnlyERKNS_7GfVec3fE(ptr noundef nonnull align 4 dereferenceable(64) %0, ptr noundef nonnull align 4 dereferenceable(12) %1) #0 align 2 {
  %3 = alloca ptr, align 8
  %4 = alloca ptr, align 8
  store ptr %0, ptr %3, align 8
  store ptr %1, ptr %4, align 8
  %5 = load ptr, ptr %3, align 8
  %6 = load ptr, ptr %4, align 8
  %7 = call noundef nonnull align 4 dereferenceable(4) ptr @_ZNK32pxrInternal_v0_24__pxrReserved__7GfVec3fixEm(ptr noundef nonnull align 4 dereferenceable(12) %6, i64 noundef 0)
  %8 = load float, ptr %7, align 4
  %9 = getelementptr inbounds nuw %"class.pxrInternal_v0_24__pxrReserved__::GfMatrix4f", ptr %5, i32 0, i32 0
  %10 = call noundef ptr @_ZN32pxrInternal_v0_24__pxrReserved__12GfMatrixDataIfLi4ELi4EEixEi(ptr noundef nonnull align 4 dereferenceable(64) %9, i32 noundef 3)
  %11 = getelementptr inbounds float, ptr %10, i64 0
  store float %8, ptr %11, align 4
  %12 = load ptr, ptr %4, align 8
  %13 = call noundef nonnull align 4 dereferenceable(4) ptr @_ZNK32pxrInternal_v0_24__pxrReserved__7GfVec3fixEm(ptr noundef nonnull align 4 dereferenceable(12) %12, i64 noundef 1)
  %14 = load float, ptr %13, align 4
  %15 = getelementptr inbounds nuw %"class.pxrInternal_v0_24__pxrReserved__::GfMatrix4f", ptr %5, i32 0, i32 0
  %16 = call noundef ptr @_ZN32pxrInternal_v0_24__pxrReserved__12GfMatrixDataIfLi4ELi4EEixEi(ptr noundef nonnull align 4 dereferenceable(64) %15, i32 noundef 3)
  %17 = getelementptr inbounds float, ptr %16, i64 1
  store float %14, ptr %17, align 4
  %18 = load ptr, ptr %4, align 8
  %19 = call noundef nonnull align 4 dereferenceable(4) ptr @_ZNK32pxrInternal_v0_24__pxrReserved__7GfVec3fixEm(ptr noundef nonnull align 4 dereferenceable(12) %18, i64 noundef 2)
  %20 = load float, ptr %19, align 4
  %21 = getelementptr inbounds nuw %"class.pxrInternal_v0_24__pxrReserved__::GfMatrix4f", ptr %5, i32 0, i32 0
  %22 = call noundef ptr @_ZN32pxrInternal_v0_24__pxrReserved__12GfMatrixDataIfLi4ELi4EEixEi(ptr noundef nonnull align 4 dereferenceable(64) %21, i32 noundef 3)
  %23 = getelementptr inbounds float, ptr %22, i64 2
  store float %20, ptr %23, align 4
  %24 = getelementptr inbounds nuw %"class.pxrInternal_v0_24__pxrReserved__::GfMatrix4f", ptr %5, i32 0, i32 0
  %25 = call noundef ptr @_ZN32pxrInternal_v0_24__pxrReserved__12GfMatrixDataIfLi4ELi4EEixEi(ptr noundef nonnull align 4 dereferenceable(64) %24, i32 noundef 3)
  %26 = getelementptr inbounds float, ptr %25, i64 3
  store float 1.000000e+00, ptr %26, align 4
  ret ptr %5
}

; Function Attrs: mustprogress uwtable
define noundef nonnull align 4 dereferenceable(64) ptr @_ZN32pxrInternal_v0_24__pxrReserved__10GfMatrix4f9SetRotateERKNS_10GfMatrix3fE(ptr noundef nonnull align 4 dereferenceable(64) %0, ptr noundef nonnull align 4 dereferenceable(36) %1) #0 align 2 {
  %3 = alloca ptr, align 8
  %4 = alloca ptr, align 8
  store ptr %0, ptr %3, align 8
  store ptr %1, ptr %4, align 8
  %5 = load ptr, ptr %3, align 8
  %6 = load ptr, ptr %4, align 8
  %7 = call noundef ptr @_ZNK32pxrInternal_v0_24__pxrReserved__10GfMatrix3fixEi(ptr noundef nonnull align 4 dereferenceable(36) %6, i32 noundef 0)
  %8 = getelementptr inbounds float, ptr %7, i64 0
  %9 = load float, ptr %8, align 4
  %10 = getelementptr inbounds nuw %"class.pxrInternal_v0_24__pxrReserved__::GfMatrix4f", ptr %5, i32 0, i32 0
  %11 = call noundef ptr @_ZN32pxrInternal_v0_24__pxrReserved__12GfMatrixDataIfLi4ELi4EEixEi(ptr noundef nonnull align 4 dereferenceable(64) %10, i32 noundef 0)
  %12 = getelementptr inbounds float, ptr %11, i64 0
  store float %9, ptr %12, align 4
  %13 = load ptr, ptr %4, align 8
  %14 = call noundef ptr @_ZNK32pxrInternal_v0_24__pxrReserved__10GfMatrix3fixEi(ptr noundef nonnull align 4 dereferenceable(36) %13, i32 noundef 0)
  %15 = getelementptr inbounds float, ptr %14, i64 1
  %16 = load float, ptr %15, align 4
  %17 = getelementptr inbounds nuw %"class.pxrInternal_v0_24__pxrReserved__::GfMatrix4f", ptr %5, i32 0, i32 0
  %18 = call noundef ptr @_ZN32pxrInternal_v0_24__pxrReserved__12GfMatrixDataIfLi4ELi4EEixEi(ptr noundef nonnull align 4 dereferenceable(64) %17, i32 noundef 0)
  %19 = getelementptr inbounds float, ptr %18, i64 1
  store float %16, ptr %19, align 4
  %20 = load ptr, ptr %4, align 8
  %21 = call noundef ptr @_ZNK32pxrInternal_v0_24__pxrReserved__10GfMatrix3fixEi(ptr noundef nonnull align 4 dereferenceable(36) %20, i32 noundef 0)
  %22 = getelementptr inbounds float, ptr %21, i64 2
  %23 = load float, ptr %22, align 4
  %24 = getelementptr inbounds nuw %"class.pxrInternal_v0_24__pxrReserved__::GfMatrix4f", ptr %5, i32 0, i32 0
  %25 = call noundef ptr @_ZN32pxrInternal_v0_24__pxrReserved__12GfMatrixDataIfLi4ELi4EEixEi(ptr noundef nonnull align 4 dereferenceable(64) %24, i32 noundef 0)
  %26 = getelementptr inbounds float, ptr %25, i64 2
  store float %23, ptr %26, align 4
  %27 = getelementptr inbounds nuw %"class.pxrInternal_v0_24__pxrReserved__::GfMatrix4f", ptr %5, i32 0, i32 0
  %28 = call noundef ptr @_ZN32pxrInternal_v0_24__pxrReserved__12GfMatrixDataIfLi4ELi4EEixEi(ptr noundef nonnull align 4 dereferenceable(64) %27, i32 noundef 0)
  %29 = getelementptr inbounds float, ptr %28, i64 3
  store float 0.000000e+00, ptr %29, align 4
  %30 = load ptr, ptr %4, align 8
  %31 = call noundef ptr @_ZNK32pxrInternal_v0_24__pxrReserved__10GfMatrix3fixEi(ptr noundef nonnull align 4 dereferenceable(36) %30, i32 noundef 1)
  %32 = getelementptr inbounds float, ptr %31, i64 0
  %33 = load float, ptr %32, align 4
  %34 = getelementptr inbounds nuw %"class.pxrInternal_v0_24__pxrReserved__::GfMatrix4f", ptr %5, i32 0, i32 0
  %35 = call noundef ptr @_ZN32pxrInternal_v0_24__pxrReserved__12GfMatrixDataIfLi4ELi4EEixEi(ptr noundef nonnull align 4 dereferenceable(64) %34, i32 noundef 1)
  %36 = getelementptr inbounds float, ptr %35, i64 0
  store float %33, ptr %36, align 4
  %37 = load ptr, ptr %4, align 8
  %38 = call noundef ptr @_ZNK32pxrInternal_v0_24__pxrReserved__10GfMatrix3fixEi(ptr noundef nonnull align 4 dereferenceable(36) %37, i32 noundef 1)
  %39 = getelementptr inbounds float, ptr %38, i64 1
  %40 = load float, ptr %39, align 4
  %41 = getelementptr inbounds nuw %"class.pxrInternal_v0_24__pxrReserved__::GfMatrix4f", ptr %5, i32 0, i32 0
  %42 = call noundef ptr @_ZN32pxrInternal_v0_24__pxrReserved__12GfMatrixDataIfLi4ELi4EEixEi(ptr noundef nonnull align 4 dereferenceable(64) %41, i32 noundef 1)
  %43 = getelementptr inbounds float, ptr %42, i64 1
  store float %40, ptr %43, align 4
  %44 = load ptr, ptr %4, align 8
  %45 = call noundef ptr @_ZNK32pxrInternal_v0_24__pxrReserved__10GfMatrix3fixEi(ptr noundef nonnull align 4 dereferenceable(36) %44, i32 noundef 1)
  %46 = getelementptr inbounds float, ptr %45, i64 2
  %47 = load float, ptr %46, align 4
  %48 = getelementptr inbounds nuw %"class.pxrInternal_v0_24__pxrReserved__::GfMatrix4f", ptr %5, i32 0, i32 0
  %49 = call noundef ptr @_ZN32pxrInternal_v0_24__pxrReserved__12GfMatrixDataIfLi4ELi4EEixEi(ptr noundef nonnull align 4 dereferenceable(64) %48, i32 noundef 1)
  %50 = getelementptr inbounds float, ptr %49, i64 2
  store float %47, ptr %50, align 4
  %51 = getelementptr inbounds nuw %"class.pxrInternal_v0_24__pxrReserved__::GfMatrix4f", ptr %5, i32 0, i32 0
  %52 = call noundef ptr @_ZN32pxrInternal_v0_24__pxrReserved__12GfMatrixDataIfLi4ELi4EEixEi(ptr noundef nonnull align 4 dereferenceable(64) %51, i32 noundef 1)
  %53 = getelementptr inbounds float, ptr %52, i64 3
  store float 0.000000e+00, ptr %53, align 4
  %54 = load ptr, ptr %4, align 8
  %55 = call noundef ptr @_ZNK32pxrInternal_v0_24__pxrReserved__10GfMatrix3fixEi(ptr noundef nonnull align 4 dereferenceable(36) %54, i32 noundef 2)
  %56 = getelementptr inbounds float, ptr %55, i64 0
  %57 = load float, ptr %56, align 4
  %58 = getelementptr inbounds nuw %"class.pxrInternal_v0_24__pxrReserved__::GfMatrix4f", ptr %5, i32 0, i32 0
  %59 = call noundef ptr @_ZN32pxrInternal_v0_24__pxrReserved__12GfMatrixDataIfLi4ELi4EEixEi(ptr noundef nonnull align 4 dereferenceable(64) %58, i32 noundef 2)
  %60 = getelementptr inbounds float, ptr %59, i64 0
  store float %57, ptr %60, align 4
  %61 = load ptr, ptr %4, align 8
  %62 = call noundef ptr @_ZNK32pxrInternal_v0_24__pxrReserved__10GfMatrix3fixEi(ptr noundef nonnull align 4 dereferenceable(36) %61, i32 noundef 2)
  %63 = getelementptr inbounds float, ptr %62, i64 1
  %64 = load float, ptr %63, align 4
  %65 = getelementptr inbounds nuw %"class.pxrInternal_v0_24__pxrReserved__::GfMatrix4f", ptr %5, i32 0, i32 0
  %66 = call noundef ptr @_ZN32pxrInternal_v0_24__pxrReserved__12GfMatrixDataIfLi4ELi4EEixEi(ptr noundef nonnull align 4 dereferenceable(64) %65, i32 noundef 2)
  %67 = getelementptr inbounds float, ptr %66, i64 1
  store float %64, ptr %67, align 4
  %68 = load ptr, ptr %4, align 8
  %69 = call noundef ptr @_ZNK32pxrInternal_v0_24__pxrReserved__10GfMatrix3fixEi(ptr noundef nonnull align 4 dereferenceable(36) %68, i32 noundef 2)
  %70 = getelementptr inbounds float, ptr %69, i64 2
  %71 = load float, ptr %70, align 4
  %72 = getelementptr inbounds nuw %"class.pxrInternal_v0_24__pxrReserved__::GfMatrix4f", ptr %5, i32 0, i32 0
  %73 = call noundef ptr @_ZN32pxrInternal_v0_24__pxrReserved__12GfMatrixDataIfLi4ELi4EEixEi(ptr noundef nonnull align 4 dereferenceable(64) %72, i32 noundef 2)
  %74 = getelementptr inbounds float, ptr %73, i64 2
  store float %71, ptr %74, align 4
  %75 = getelementptr inbounds nuw %"class.pxrInternal_v0_24__pxrReserved__::GfMatrix4f", ptr %5, i32 0, i32 0
  %76 = call noundef ptr @_ZN32pxrInternal_v0_24__pxrReserved__12GfMatrixDataIfLi4ELi4EEixEi(ptr noundef nonnull align 4 dereferenceable(64) %75, i32 noundef 2)
  %77 = getelementptr inbounds float, ptr %76, i64 3
  store float 0.000000e+00, ptr %77, align 4
  %78 = getelementptr inbounds nuw %"class.pxrInternal_v0_24__pxrReserved__::GfMatrix4f", ptr %5, i32 0, i32 0
  %79 = call noundef ptr @_ZN32pxrInternal_v0_24__pxrReserved__12GfMatrixDataIfLi4ELi4EEixEi(ptr noundef nonnull align 4 dereferenceable(64) %78, i32 noundef 3)
  %80 = getelementptr inbounds float, ptr %79, i64 0
  store float 0.000000e+00, ptr %80, align 4
  %81 = getelementptr inbounds nuw %"class.pxrInternal_v0_24__pxrReserved__::GfMatrix4f", ptr %5, i32 0, i32 0
  %82 = call noundef ptr @_ZN32pxrInternal_v0_24__pxrReserved__12GfMatrixDataIfLi4ELi4EEixEi(ptr noundef nonnull align 4 dereferenceable(64) %81, i32 noundef 3)
  %83 = getelementptr inbounds float, ptr %82, i64 1
  store float 0.000000e+00, ptr %83, align 4
  %84 = getelementptr inbounds nuw %"class.pxrInternal_v0_24__pxrReserved__::GfMatrix4f", ptr %5, i32 0, i32 0
  %85 = call noundef ptr @_ZN32pxrInternal_v0_24__pxrReserved__12GfMatrixDataIfLi4ELi4EEixEi(ptr noundef nonnull align 4 dereferenceable(64) %84, i32 noundef 3)
  %86 = getelementptr inbounds float, ptr %85, i64 2
  store float 0.000000e+00, ptr %86, align 4
  %87 = getelementptr inbounds nuw %"class.pxrInternal_v0_24__pxrReserved__::GfMatrix4f", ptr %5, i32 0, i32 0
  %88 = call noundef ptr @_ZN32pxrInternal_v0_24__pxrReserved__12GfMatrixDataIfLi4ELi4EEixEi(ptr noundef nonnull align 4 dereferenceable(64) %87, i32 noundef 3)
  %89 = getelementptr inbounds float, ptr %88, i64 3
  store float 1.000000e+00, ptr %89, align 4
  ret ptr %5
}

; Function Attrs: mustprogress uwtable
define noundef nonnull align 4 dereferenceable(64) ptr @_ZN32pxrInternal_v0_24__pxrReserved__10GfMatrix4f12SetTransformERKNS_10GfMatrix3fERKNS_7GfVec3fE(ptr noundef nonnull align 4 dereferenceable(64) %0, ptr noundef nonnull align 4 dereferenceable(36) %1, ptr noundef nonnull align 4 dereferenceable(12) %2) #0 align 2 {
  %4 = alloca ptr, align 8
  %5 = alloca ptr, align 8
  %6 = alloca ptr, align 8
  store ptr %0, ptr %4, align 8
  store ptr %1, ptr %5, align 8
  store ptr %2, ptr %6, align 8
  %7 = load ptr, ptr %4, align 8
  %8 = load ptr, ptr %5, align 8
  %9 = call noundef nonnull align 4 dereferenceable(64) ptr @_ZN32pxrInternal_v0_24__pxrReserved__10GfMatrix4f9SetRotateERKNS_10GfMatrix3fE(ptr noundef nonnull align 4 dereferenceable(64) %7, ptr noundef nonnull align 4 dereferenceable(36) %8)
  %10 = load ptr, ptr %6, align 8
  %11 = call noundef nonnull align 4 dereferenceable(64) ptr @_ZN32pxrInternal_v0_24__pxrReserved__10GfMatrix4f16SetTranslateOnlyERKNS_7GfVec3fE(ptr noundef nonnull align 4 dereferenceable(64) %7, ptr noundef nonnull align 4 dereferenceable(12) %10)
  ret ptr %11
}